target datalayout = "e-m:e-p270:32:32-p271:32:32-p272:64:64-i64:64-i128:128-f80:128-n8:16:32:64-S128"
target triple = "x86_64-pc-linux-gnu"

%struct.b2World = type { %struct.b2ArenaAllocator, %struct.b2BroadPhase, %struct.b2ConstraintGraph, %struct.b2IdPool, %struct.b2BodyArray, %struct.b2IdPool, %struct.b2SolverSetArray, %struct.b2IdPool, %struct.b2JointArray, %struct.b2IdPool, %struct.b2ContactArray, %struct.b2IdPool, %struct.b2IslandArray, %struct.b2IdPool, %struct.b2IdPool, %struct.b2ShapeArray, %struct.b2ChainShapeArray, %struct.b2SensorArray, %struct.b2TaskContextArray, %struct.b2SensorTaskContextArray, %struct.b2BodyMoveEventArray, %struct.b2SensorBeginTouchEventArray, %struct.b2ContactBeginTouchEventArray, [2 x %struct.b2SensorEndTouchEventArray], [2 x %struct.b2ContactEndTouchEventArray], i32, %struct.b2ContactHitEventArray, %struct.b2BitSet, %struct.b2BitSet, %struct.b2BitSet, i64, i32, %struct.b2Vec2, float, float, float, float, float, float, float, float, ptr, ptr, i16, %struct.b2Profile, ptr, ptr, ptr, ptr, i32, ptr, ptr, ptr, ptr, ptr, float, i32, i32, i16, i8, i8, i8, i8, i8, i8 }
%struct.b2ArenaAllocator = type { ptr, i32, i32, i32, i32, %struct.b2ArenaEntryArray }
%struct.b2ArenaEntryArray = type { ptr, i32, i32 }
%struct.b2BroadPhase = type { [3 x %struct.b2DynamicTree], i32, %struct.b2HashSet, %struct.b2IntArray, ptr, ptr, i32, %struct.b2AtomicInt, %struct.b2HashSet }
%struct.b2DynamicTree = type { ptr, i32, i32, i32, i32, i32, ptr, ptr, ptr, ptr, i32 }
%struct.b2IntArray = type { ptr, i32, i32 }
%struct.b2AtomicInt = type { i32 }
%struct.b2HashSet = type { ptr, i32, i32 }
%struct.b2ConstraintGraph = type { [12 x %struct.b2GraphColor] }
%struct.b2GraphColor = type { %struct.b2BitSet, %struct.b2ContactSimArray, %struct.b2JointSimArray, %union.anon }
%struct.b2ContactSimArray = type { ptr, i32, i32 }
%struct.b2JointSimArray = type { ptr, i32, i32 }
%union.anon = type { ptr }
%struct.b2BodyArray = type { ptr, i32, i32 }
%struct.b2SolverSetArray = type { ptr, i32, i32 }
%struct.b2JointArray = type { ptr, i32, i32 }
%struct.b2ContactArray = type { ptr, i32, i32 }
%struct.b2IslandArray = type { ptr, i32, i32 }
%struct.b2IdPool = type { %struct.b2IntArray, i32 }
%struct.b2ShapeArray = type { ptr, i32, i32 }
%struct.b2ChainShapeArray = type { ptr, i32, i32 }
%struct.b2SensorArray = type { ptr, i32, i32 }
%struct.b2TaskContextArray = type { ptr, i32, i32 }
%struct.b2SensorTaskContextArray = type { ptr, i32, i32 }
%struct.b2BodyMoveEventArray = type { ptr, i32, i32 }
%struct.b2SensorBeginTouchEventArray = type { ptr, i32, i32 }
%struct.b2ContactBeginTouchEventArray = type { ptr, i32, i32 }
%struct.b2SensorEndTouchEventArray = type { ptr, i32, i32 }
%struct.b2ContactEndTouchEventArray = type { ptr, i32, i32 }
%struct.b2ContactHitEventArray = type { ptr, i32, i32 }
%struct.b2BitSet = type { ptr, i32, i32 }
%struct.b2Vec2 = type { float, float }
%struct.b2Profile = type { float, float, float, float, float, float, float, float, float, float, float, float, float, float, float, float, float, float, float, float, float, float }
%struct.b2ShapeId = type { i32, i16, i16 }
%struct.b2Shape = type { i32, i32, i32, i32, i32, i32, float, float, float, float, float, i32, %struct.b2AABB, %struct.b2AABB, %struct.b2Vec2, i32, %struct.b2Filter, ptr, i32, %union.anon.0, i16, i8, i8, i8, i8 }
%struct.b2AABB = type { %struct.b2Vec2, %struct.b2Vec2 }
%struct.b2Filter = type { i64, i64, i32 }
%union.anon.0 = type { %struct.b2Polygon }
%struct.b2Polygon = type { [8 x %struct.b2Vec2], [8 x %struct.b2Vec2], %struct.b2Vec2, float, i32 }
%struct.b2QueryFilter = type { i64, i64 }
%struct.WorldQueryContext = type { ptr, ptr, %struct.b2QueryFilter, ptr }

; Function Attrs: inlinehint nounwind uwtable
define internal ptr @b2ShapeArray_Get(ptr noundef %0, i32 noundef %1) #5 {
  %3 = alloca ptr, align 8
  %4 = alloca i32, align 4
  store ptr %0, ptr %3, align 8, !tbaa !12
  store i32 %1, ptr %4, align 4, !tbaa !3
  %5 = load ptr, ptr %3, align 8, !tbaa !12
  %6 = getelementptr inbounds nuw %struct.b2ShapeArray, ptr %5, i32 0, i32 0
  %7 = load ptr, ptr %6, align 8, !tbaa !612
  %8 = load i32, ptr %4, align 4, !tbaa !3
  %9 = sext i32 %8 to i64
  %10 = getelementptr inbounds %struct.b2Shape, ptr %7, i64 %9
  ret ptr %10
}

; Function Attrs: nounwind uwtable
define internal zeroext i1 @TreeQueryCallback(i32 noundef %0, i32 noundef %1, ptr noundef %2) #0 {
  %4 = alloca i1, align 1
  %5 = alloca i32, align 4
  %6 = alloca i32, align 4
  %7 = alloca ptr, align 8
  %8 = alloca ptr, align 8
  %9 = alloca ptr, align 8
  %10 = alloca ptr, align 8
  %11 = alloca %struct.b2Filter, align 8
  %12 = alloca %struct.b2QueryFilter, align 8
  %13 = alloca i32, align 4
  %14 = alloca %struct.b2ShapeId, align 4
  %15 = alloca i8, align 1
  store i32 %0, ptr %5, align 4, !tbaa !3
  store i32 %1, ptr %6, align 4, !tbaa !3
  store ptr %2, ptr %7, align 8, !tbaa !12
  call void @llvm.lifetime.start.p0(i64 8, ptr %8) #10
  %16 = load ptr, ptr %7, align 8, !tbaa !12
  store ptr %16, ptr %8, align 8, !tbaa !513
  call void @llvm.lifetime.start.p0(i64 8, ptr %9) #10
  %17 = load ptr, ptr %8, align 8, !tbaa !513
  %18 = getelementptr inbounds nuw %struct.WorldQueryContext, ptr %17, i32 0, i32 0
  %19 = load ptr, ptr %18, align 8, !tbaa !502
  store ptr %19, ptr %9, align 8, !tbaa !47
  call void @llvm.lifetime.start.p0(i64 8, ptr %10) #10
  %20 = load ptr, ptr %9, align 8, !tbaa !47
  %21 = getelementptr inbounds nuw %struct.b2World, ptr %20, i32 0, i32 15
  %22 = load i32, ptr %6, align 4, !tbaa !3
  %23 = call ptr @b2ShapeArray_Get(ptr noundef %21, i32 noundef %22)
  store ptr %23, ptr %10, align 8, !tbaa !113
  call void @llvm.lifetime.start.p0(i64 24, ptr %11) #10
  %24 = load ptr, ptr %10, align 8, !tbaa !113
  %25 = getelementptr inbounds nuw %struct.b2Shape, ptr %24, i32 0, i32 16
  call void @llvm.memcpy.p0.p0.i64(ptr align 8 %11, ptr align 8 %25, i64 24, i1 false), !tbaa.struct !515
  call void @llvm.lifetime.start.p0(i64 16, ptr %12) #10
  %26 = load ptr, ptr %8, align 8, !tbaa !513
  %27 = getelementptr inbounds nuw %struct.WorldQueryContext, ptr %26, i32 0, i32 2
  call void @llvm.memcpy.p0.p0.i64(ptr align 8 %12, ptr align 8 %27, i64 16, i1 false), !tbaa.struct !506
  %28 = getelementptr inbounds nuw %struct.b2Filter, ptr %11, i32 0, i32 0
  %29 = load i64, ptr %28, align 8, !tbaa !516
  %30 = getelementptr inbounds nuw %struct.b2QueryFilter, ptr %12, i32 0, i32 1
  %31 = load i64, ptr %30, align 8, !tbaa !508
  %32 = and i64 %29, %31
  %33 = icmp eq i64 %32, 0
  br i1 %33, label %41, label %34

34:                                               ; preds = %3
  %35 = getelementptr inbounds nuw %struct.b2Filter, ptr %11, i32 0, i32 1
  %36 = load i64, ptr %35, align 8, !tbaa !517
  %37 = getelementptr inbounds nuw %struct.b2QueryFilter, ptr %12, i32 0, i32 0
  %38 = load i64, ptr %37, align 8, !tbaa !518
  %39 = and i64 %36, %38
  %40 = icmp eq i64 %39, 0
  br i1 %40, label %41, label %42

41:                                               ; preds = %34, %3
  store i1 true, ptr %4, align 1
  store i32 1, ptr %13, align 4
  br label %65

42:                                               ; preds = %34
  call void @llvm.lifetime.start.p0(i64 8, ptr %14) #10
  %43 = getelementptr inbounds nuw %struct.b2ShapeId, ptr %14, i32 0, i32 0
  %44 = load i32, ptr %6, align 4, !tbaa !3
  %45 = add nsw i32 %44, 1
  store i32 %45, ptr %43, align 4, !tbaa !289
  %46 = getelementptr inbounds nuw %struct.b2ShapeId, ptr %14, i32 0, i32 1
  %47 = load ptr, ptr %9, align 8, !tbaa !47
  %48 = getelementptr inbounds nuw %struct.b2World, ptr %47, i32 0, i32 58
  %49 = load i16, ptr %48, align 4, !tbaa !126
  store i16 %49, ptr %46, align 4, !tbaa !291
  %50 = getelementptr inbounds nuw %struct.b2ShapeId, ptr %14, i32 0, i32 2
  %51 = load ptr, ptr %10, align 8, !tbaa !113
  %52 = getelementptr inbounds nuw %struct.b2Shape, ptr %51, i32 0, i32 20
  %53 = load i16, ptr %52, align 4, !tbaa !292
  store i16 %53, ptr %50, align 2, !tbaa !293
  call void @llvm.lifetime.start.p0(i64 1, ptr %15) #10
  %54 = load ptr, ptr %8, align 8, !tbaa !513
  %55 = getelementptr inbounds nuw %struct.WorldQueryContext, ptr %54, i32 0, i32 1
  %56 = load ptr, ptr %55, align 8, !tbaa !505
  %57 = load ptr, ptr %8, align 8, !tbaa !513
  %58 = getelementptr inbounds nuw %struct.WorldQueryContext, ptr %57, i32 0, i32 3
  %59 = load ptr, ptr %58, align 8, !tbaa !507
  %60 = load i64, ptr %14, align 4
  %61 = call zeroext i1 %56(i64 %60, ptr noundef %59)
  %62 = zext i1 %61 to i8
  store i8 %62, ptr %15, align 1, !tbaa !125
  %63 = load i8, ptr %15, align 1, !tbaa !125, !range !90, !noundef !91
  %64 = trunc i8 %63 to i1
  store i1 %64, ptr %4, align 1
  store i32 1, ptr %13, align 4
  call void @llvm.lifetime.end.p0(i64 1, ptr %15) #10
  call void @llvm.lifetime.end.p0(i64 8, ptr %14) #10
  br label %65

65:                                               ; preds = %42, %41
  call void @llvm.lifetime.end.p0(i64 16, ptr %12) #10
  call void @llvm.lifetime.end.p0(i64 24, ptr %11) #10
  call void @llvm.lifetime.end.p0(i64 8, ptr %10) #10
  call void @llvm.lifetime.end.p0(i64 8, ptr %9) #10
  call void @llvm.lifetime.end.p0(i64 8, ptr %8) #10
  %66 = load i1, ptr %4, align 1
  ret i1 %66
}