; Function Attrs: nounwind uwtable
define internal zeroext i1 @TreeQueryCallback(i32 %0, i32 noundef %1, ptr noundef readonly captures(none) %2) #0 {
  %4 = load ptr, ptr %2, align 8, !tbaa !412
  %5 = getelementptr inbounds nuw i8, ptr %4, i64 1256
  %.val = load ptr, ptr %5, align 8, !tbaa !418
  %6 = sext i32 %1 to i64
  %7 = getelementptr inbounds %struct.b2Shape, ptr %.val, i64 %6
  %8 = getelementptr inbounds nuw i8, ptr %7, i64 96
  %.sroa.03.0.copyload = load i64, ptr %8, align 8, !tbaa !227
  %.sroa.42.0..sroa_idx = getelementptr inbounds nuw i8, ptr %2, i64 24
  %.sroa.42.0.copyload = load i64, ptr %.sroa.42.0..sroa_idx, align 8, !tbaa !227
  %9 = and i64 %.sroa.42.0.copyload, %.sroa.03.0.copyload
  %10 = icmp eq i64 %9, 0
  br i1 %10, label %26, label %11

11:                                               ; preds = %3
  %12 = getelementptr inbounds nuw i8, ptr %2, i64 16
  %.sroa.01.0.copyload = load i64, ptr %12, align 8, !tbaa !227
  %.sroa.44.0..sroa_idx = getelementptr inbounds nuw i8, ptr %7, i64 104
  %.sroa.44.0.copyload = load i64, ptr %.sroa.44.0..sroa_idx, align 8, !tbaa !227
  %13 = and i64 %.sroa.44.0.copyload, %.sroa.01.0.copyload
  %14 = icmp eq i64 %13, 0
  br i1 %14, label %26, label %15

15:                                               ; preds = %11
  %16 = add nsw i32 %1, 1
  %17 = getelementptr inbounds nuw i8, ptr %4, i64 1780
  %18 = load i16, ptr %17, align 4, !tbaa !83
  %19 = getelementptr inbounds nuw i8, ptr %7, i64 276
  %20 = load i16, ptr %19, align 4, !tbaa !239
  %21 = getelementptr inbounds nuw i8, ptr %2, i64 8
  %22 = load ptr, ptr %21, align 8, !tbaa !415
  %23 = getelementptr inbounds nuw i8, ptr %2, i64 32
  %24 = load ptr, ptr %23, align 8, !tbaa !416
  %.sroa.5.0.insert.ext = zext i16 %20 to i64
  %.sroa.5.0.insert.shift = shl nuw i64 %.sroa.5.0.insert.ext, 48
  %.sroa.4.0.insert.ext = zext i16 %18 to i64
  %.sroa.4.0.insert.shift = shl nuw nsw i64 %.sroa.4.0.insert.ext, 32
  %.sroa.0.0.insert.ext = zext i32 %16 to i64
  %.sroa.4.0.insert.insert = or disjoint i64 %.sroa.4.0.insert.shift, %.sroa.0.0.insert.ext
  %.sroa.0.0.insert.insert = or disjoint i64 %.sroa.4.0.insert.insert, %.sroa.5.0.insert.shift
  %25 = tail call zeroext i1 %22(i64 %.sroa.0.0.insert.insert, ptr noundef %24) #22
  br label %26

26:                                               ; preds = %3, %11, %15
  %.0 = phi i1 [ %25, %15 ], [ true, %11 ], [ true, %3 ]
  ret i1 %.0
}